target datalayout = "e-m:e-p270:32:32-p271:32:32-p272:64:64-i64:64-i128:128-f80:128-n8:16:32:64-S128"
target triple = "x86_64-pc-linux-gnu"

%"class.icu_77::UObject" = type { ptr }
%"struct.icu_77::UInitOnce" = type { %"struct.std::atomic", i32 }
%"struct.std::atomic" = type { %"struct.std::__atomic_base" }
%"struct.std::__atomic_base" = type { i32 }
%"class.icu_77::UnicodeString" = type { %"class.icu_77::Replaceable", %"union.icu_77::UnicodeString::StackBufferOrFields" }
%"class.icu_77::Replaceable" = type { %"class.icu_77::UObject" }
%"union.icu_77::UnicodeString::StackBufferOrFields" = type { %struct.anon.0, [32 x i8] }
%struct.anon.0 = type { i16, i32, i32, ptr }
%struct.anon = type { i16, [27 x i16] }

@_ZN12_GLOBAL__N_124gNumberSkeletonsInitOnceE = internal global { { i32 }, i32 } zeroinitializer, align 4
@_ZTVN6icu_777UObjectE = available_externally unnamed_addr constant { [5 x ptr] } { [5 x ptr] [ptr null, ptr @_ZTIN6icu_777UObjectE, ptr @_ZN6icu_777UObjectD1Ev, ptr @_ZN6icu_777UObjectD0Ev, ptr @_ZNK6icu_777UObject17getDynamicClassIDEv] }, align 8

; Function Attrs: noinline noreturn nounwind uwtable
define linkonce_odr hidden void @__clang_call_terminate(ptr noundef %0) #4 comdat {
  %2 = call ptr @__cxa_begin_catch(ptr %0) #14
  call void @_ZSt9terminatev() #16
  unreachable
}

; Function Attrs: mustprogress nounwind uwtable
define linkonce_odr noundef i32 @_ZStanSt12memory_orderSt23__memory_order_modifier(i32 noundef %0, i32 noundef %1) #0 comdat {
  %3 = alloca i32, align 4
  %4 = alloca i32, align 4
  store i32 %0, ptr %3, align 4, !tbaa !239
  store i32 %1, ptr %4, align 4, !tbaa !241
  %5 = load i32, ptr %3, align 4, !tbaa !239
  %6 = load i32, ptr %4, align 4, !tbaa !241
  %7 = and i32 %5, %6
  ret i32 %7
}

; Function Attrs: inlinehint mustprogress nounwind uwtable
define linkonce_odr void @_ZN6icu_777UObjectC2Ev(ptr noundef nonnull align 8 dereferenceable(8) %0) unnamed_addr #2 comdat align 2 {
  %2 = alloca ptr, align 8
  store ptr %0, ptr %2, align 8, !tbaa !245
  %3 = load ptr, ptr %2, align 8
  store ptr getelementptr inbounds inrange(-16, 24) ({ [5 x ptr] }, ptr @_ZTVN6icu_777UObjectE, i32 0, i32 0, i32 2), ptr %3, align 8, !tbaa !77
  ret void
}

; Function Attrs: alwaysinline mustprogress nounwind uwtable
define linkonce_odr noundef i32 @_ZNKSt13__atomic_baseIiE4loadESt12memory_order(ptr noundef nonnull align 4 dereferenceable(4) %0, i32 noundef %1) #13 comdat align 2 personality ptr @__gxx_personality_v0 {
  %3 = alloca ptr, align 8
  %4 = alloca i32, align 4
  %5 = alloca i32, align 4
  %6 = alloca i32, align 4
  store ptr %0, ptr %3, align 8, !tbaa !237
  store i32 %1, ptr %4, align 4, !tbaa !239
  %7 = load ptr, ptr %3, align 8
  call void @llvm.lifetime.start.p0(i64 4, ptr %5) #14
  %8 = load i32, ptr %4, align 4, !tbaa !239
  %9 = invoke noundef i32 @_ZStanSt12memory_orderSt23__memory_order_modifier(i32 noundef %8, i32 noundef 65535)
          to label %10 unwind label %27

10:                                               ; preds = %2
  store i32 %9, ptr %5, align 4, !tbaa !239
  br label %11

11:                                               ; preds = %10
  br label %12

12:                                               ; preds = %11
  br label %13

13:                                               ; preds = %12
  br label %14

14:                                               ; preds = %13
  br label %15

15:                                               ; preds = %14
  br label %16

16:                                               ; preds = %15
  %17 = getelementptr inbounds nuw %"struct.std::__atomic_base", ptr %7, i32 0, i32 0
  %18 = load i32, ptr %4, align 4, !tbaa !239
  switch i32 %18, label %19 [
    i32 1, label %21
    i32 2, label %21
    i32 5, label %23
  ]

19:                                               ; preds = %16
  %20 = load atomic i32, ptr %17 monotonic, align 4
  store i32 %20, ptr %6, align 4
  br label %25

21:                                               ; preds = %16, %16
  %22 = load atomic i32, ptr %17 acquire, align 4
  store i32 %22, ptr %6, align 4
  br label %25

23:                                               ; preds = %16
  %24 = load atomic i32, ptr %17 seq_cst, align 4
  store i32 %24, ptr %6, align 4
  br label %25

25:                                               ; preds = %23, %21, %19
  %26 = load i32, ptr %6, align 4, !tbaa !14
  call void @llvm.lifetime.end.p0(i64 4, ptr %5) #14
  ret i32 %26

27:                                               ; preds = %2
  %28 = landingpad { ptr, i32 }
          catch ptr null
  %29 = extractvalue { ptr, i32 } %28, 0
  call void @__clang_call_terminate(ptr %29) #16
  unreachable
}

; Function Attrs: inlinehint mustprogress nounwind uwtable
define linkonce_odr void @_ZN6icu_7711ReplaceableC2Ev(ptr noundef nonnull align 8 dereferenceable(8) %0) unnamed_addr #2 comdat align 2 {
  %2 = alloca ptr, align 8
  store ptr %0, ptr %2, align 8, !tbaa !243
  %3 = load ptr, ptr %2, align 8
  call void @_ZN6icu_777UObjectC2Ev(ptr noundef nonnull align 8 dereferenceable(8) %3) #14
  store ptr getelementptr inbounds inrange(-16, 88) ({ [13 x ptr] }, ptr @_ZTVN6icu_7711ReplaceableE, i32 0, i32 0, i32 2), ptr %3, align 8, !tbaa !77
  ret void
}

; Function Attrs: inlinehint mustprogress nounwind uwtable
define linkonce_odr noundef i32 @_ZN6icu_7716umtx_loadAcquireERSt6atomicIiE(ptr noundef nonnull align 4 dereferenceable(4) %0) #2 comdat {
  %2 = alloca ptr, align 8
  store ptr %0, ptr %2, align 8, !tbaa !235
  %3 = load ptr, ptr %2, align 8, !tbaa !235
  %4 = call noundef i32 @_ZNKSt13__atomic_baseIiE4loadESt12memory_order(ptr noundef nonnull align 4 dereferenceable(4) %3, i32 noundef 2) #14
  ret i32 %4
}

; Function Attrs: inlinehint mustprogress nounwind uwtable
define internal noundef signext i8 @_ZL9U_FAILURE10UErrorCode(i32 noundef %0) #2 {
  %2 = alloca i32, align 4
  store i32 %0, ptr %2, align 4, !tbaa !15
  %3 = load i32, ptr %2, align 4, !tbaa !15
  %4 = icmp sgt i32 %3, 0
  %5 = zext i1 %4 to i8
  ret i8 %5
}

; Function Attrs: inlinehint mustprogress nounwind uwtable
define linkonce_odr void @_ZN6icu_7713UnicodeStringC2Ev(ptr noundef nonnull align 8 dereferenceable(64) %0) unnamed_addr #2 comdat align 2 {
  %2 = alloca ptr, align 8
  store ptr %0, ptr %2, align 8, !tbaa !27
  %3 = load ptr, ptr %2, align 8
  call void @_ZN6icu_7711ReplaceableC2Ev(ptr noundef nonnull align 8 dereferenceable(8) %3)
  store ptr getelementptr inbounds inrange(-16, 88) ({ [13 x ptr] }, ptr @_ZTVN6icu_7713UnicodeStringE, i32 0, i32 0, i32 2), ptr %3, align 8, !tbaa !77
  %4 = getelementptr inbounds nuw %"class.icu_77::UnicodeString", ptr %3, i32 0, i32 1
  %5 = getelementptr inbounds nuw %struct.anon, ptr %4, i32 0, i32 0
  store i16 2, ptr %5, align 8, !tbaa !69
  ret void
}

; Function Attrs: inlinehint mustprogress uwtable
define linkonce_odr void @_ZN6icu_7713umtx_initOnceERNS_9UInitOnceEPFvR10UErrorCodeES3_(ptr noundef nonnull align 4 dereferenceable(8) %0, ptr noundef %1, ptr noundef nonnull align 4 dereferenceable(4) %2) #3 comdat {
  %4 = alloca ptr, align 8
  %5 = alloca ptr, align 8
  %6 = alloca ptr, align 8
  store ptr %0, ptr %4, align 8, !tbaa !51
  store ptr %1, ptr %5, align 8, !tbaa !22
  store ptr %2, ptr %6, align 8, !tbaa !22
  %7 = load ptr, ptr %6, align 8, !tbaa !22
  %8 = load i32, ptr %7, align 4, !tbaa !15
  %9 = call noundef signext i8 @_ZL9U_FAILURE10UErrorCode(i32 noundef %8)
  %10 = icmp ne i8 %9, 0
  br i1 %10, label %11, label %12

11:                                               ; preds = %3
  br label %41

12:                                               ; preds = %3
  %13 = load ptr, ptr %4, align 8, !tbaa !51
  %14 = getelementptr inbounds nuw %"struct.icu_77::UInitOnce", ptr %13, i32 0, i32 0
  %15 = call noundef i32 @_ZN6icu_7716umtx_loadAcquireERSt6atomicIiE(ptr noundef nonnull align 4 dereferenceable(4) %14)
  %16 = icmp ne i32 %15, 2
  br i1 %16, label %17, label %29

17:                                               ; preds = %12
  %18 = load ptr, ptr %4, align 8, !tbaa !51
  %19 = call noundef signext i8 @_ZN6icu_7720umtx_initImplPreInitERNS_9UInitOnceE(ptr noundef nonnull align 4 dereferenceable(8) %18)
  %20 = icmp ne i8 %19, 0
  br i1 %20, label %21, label %29

21:                                               ; preds = %17
  %22 = load ptr, ptr %5, align 8, !tbaa !22
  %23 = load ptr, ptr %6, align 8, !tbaa !22
  call void %22(ptr noundef nonnull align 4 dereferenceable(4) %23)
  %24 = load ptr, ptr %6, align 8, !tbaa !22
  %25 = load i32, ptr %24, align 4, !tbaa !15
  %26 = load ptr, ptr %4, align 8, !tbaa !51
  %27 = getelementptr inbounds nuw %"struct.icu_77::UInitOnce", ptr %26, i32 0, i32 1
  store i32 %25, ptr %27, align 4, !tbaa !53
  %28 = load ptr, ptr %4, align 8, !tbaa !51
  call void @_ZN6icu_7721umtx_initImplPostInitERNS_9UInitOnceE(ptr noundef nonnull align 4 dereferenceable(8) %28)
  br label %41

29:                                               ; preds = %17, %12
  %30 = load ptr, ptr %4, align 8, !tbaa !51
  %31 = getelementptr inbounds nuw %"struct.icu_77::UInitOnce", ptr %30, i32 0, i32 1
  %32 = load i32, ptr %31, align 4, !tbaa !53
  %33 = call noundef signext i8 @_ZL9U_FAILURE10UErrorCode(i32 noundef %32)
  %34 = icmp ne i8 %33, 0
  br i1 %34, label %35, label %40

35:                                               ; preds = %29
  %36 = load ptr, ptr %4, align 8, !tbaa !51
  %37 = getelementptr inbounds nuw %"struct.icu_77::UInitOnce", ptr %36, i32 0, i32 1
  %38 = load i32, ptr %37, align 4, !tbaa !53
  %39 = load ptr, ptr %6, align 8, !tbaa !22
  store i32 %38, ptr %39, align 4, !tbaa !15
  br label %40

40:                                               ; preds = %35, %29
  br label %41

41:                                               ; preds = %11, %40, %21
  ret void
}

; Function Attrs: mustprogress uwtable
define void @_ZN6icu_776number4impl8skeleton8generateERKNS1_10MacroPropsER10UErrorCode(ptr dead_on_unwind noalias writable sret(%"class.icu_77::UnicodeString") align 8 %0, ptr noundef nonnull align 8 dereferenceable(472) %1, ptr noundef nonnull align 4 dereferenceable(4) %2) #1 personality ptr @__gxx_personality_v0 {
  %4 = alloca ptr, align 8
  %5 = alloca ptr, align 8
  %6 = alloca ptr, align 8
  %7 = alloca i1, align 1
  %8 = alloca ptr, align 8
  %9 = alloca i32, align 4
  store ptr %0, ptr %4, align 8
  store ptr %1, ptr %5, align 8, !tbaa !75
  store ptr %2, ptr %6, align 8, !tbaa !22
  %10 = load ptr, ptr %6, align 8, !tbaa !22
  call void @_ZN6icu_7713umtx_initOnceERNS_9UInitOnceEPFvR10UErrorCodeES3_(ptr noundef nonnull align 4 dereferenceable(8) @_ZN12_GLOBAL__N_124gNumberSkeletonsInitOnceE, ptr noundef @_ZN12_GLOBAL__N_119initNumberSkeletonsER10UErrorCode, ptr noundef nonnull align 4 dereferenceable(4) %10)
  store i1 false, ptr %7, align 1
  call void @_ZN6icu_7713UnicodeStringC2Ev(ptr noundef nonnull align 8 dereferenceable(64) %0)
  %11 = load ptr, ptr %5, align 8, !tbaa !75
  %12 = load ptr, ptr %6, align 8, !tbaa !22
  invoke void @_ZN6icu_776number4impl16GeneratorHelpers16generateSkeletonERKNS1_10MacroPropsERNS_13UnicodeStringER10UErrorCode(ptr noundef nonnull align 8 dereferenceable(472) %11, ptr noundef nonnull align 8 dereferenceable(64) %0, ptr noundef nonnull align 4 dereferenceable(4) %12)
          to label %13 unwind label %15

13:                                               ; preds = %3
  store i1 true, ptr %7, align 1
  %14 = load i1, ptr %7, align 1
  br i1 %14, label %20, label %19

15:                                               ; preds = %3
  %16 = landingpad { ptr, i32 }
          cleanup
  %17 = extractvalue { ptr, i32 } %16, 0
  store ptr %17, ptr %8, align 8
  %18 = extractvalue { ptr, i32 } %16, 1
  store i32 %18, ptr %9, align 4
  call void @_ZN6icu_7713UnicodeStringD1Ev(ptr noundef nonnull align 8 dereferenceable(64) %0) #14
  br label %21

19:                                               ; preds = %13
  call void @_ZN6icu_7713UnicodeStringD1Ev(ptr noundef nonnull align 8 dereferenceable(64) %0) #14
  br label %20

20:                                               ; preds = %19, %13
  ret void

21:                                               ; preds = %15
  %22 = load ptr, ptr %8, align 8
  %23 = load i32, ptr %9, align 4
  %24 = insertvalue { ptr, i32 } poison, ptr %22, 0
  %25 = insertvalue { ptr, i32 } %24, i32 %23, 1
  resume { ptr, i32 } %25
}