; Function Attrs: mustprogress uwtable
define void @_ZN6icu_776number4impl8skeleton8generateERKNS1_10MacroPropsER10UErrorCode(ptr dead_on_unwind noalias writable sret(%"class.icu_77::UnicodeString") align 8 initializes((0, 10)) %0, ptr noundef nonnull align 8 dereferenceable(472) %1, ptr noundef nonnull align 4 dereferenceable(4) %2) local_unnamed_addr #1 personality ptr @__gxx_personality_v0 {
  %4 = load i32, ptr %2, align 4, !tbaa !13
  %5 = icmp slt i32 %4, 1
  br i1 %5, label %6, label %_ZN6icu_7713umtx_initOnceERNS_9UInitOnceEPFvR10UErrorCodeES3_.exit

6:                                                ; preds = %3
  %7 = load atomic i32, ptr @_ZN12_GLOBAL__N_124gNumberSkeletonsInitOnceE acquire, align 4
  %.not11.i = icmp eq i32 %7, 2
  br i1 %.not11.i, label %12, label %8

8:                                                ; preds = %6
  %9 = tail call noundef signext i8 @_ZN6icu_7720umtx_initImplPreInitERNS_9UInitOnceE(ptr noundef nonnull align 4 dereferenceable(8) @_ZN12_GLOBAL__N_124gNumberSkeletonsInitOnceE)
  %.not12.i = icmp eq i8 %9, 0
  br i1 %.not12.i, label %12, label %10

10:                                               ; preds = %8
  tail call fastcc void @_ZN12_GLOBAL__N_119initNumberSkeletonsER10UErrorCode(ptr noundef nonnull align 4 dereferenceable(4) %2)
  %11 = load i32, ptr %2, align 4, !tbaa !13
  store i32 %11, ptr getelementptr inbounds nuw (i8, ptr @_ZN12_GLOBAL__N_124gNumberSkeletonsInitOnceE, i64 4), align 4, !tbaa !21
  tail call void @_ZN6icu_7721umtx_initImplPostInitERNS_9UInitOnceE(ptr noundef nonnull align 4 dereferenceable(8) @_ZN12_GLOBAL__N_124gNumberSkeletonsInitOnceE)
  br label %_ZN6icu_7713umtx_initOnceERNS_9UInitOnceEPFvR10UErrorCodeES3_.exit

12:                                               ; preds = %8, %6
  %13 = load i32, ptr getelementptr inbounds nuw (i8, ptr @_ZN12_GLOBAL__N_124gNumberSkeletonsInitOnceE, i64 4), align 4, !tbaa !21
  %14 = icmp slt i32 %13, 1
  br i1 %14, label %_ZN6icu_7713umtx_initOnceERNS_9UInitOnceEPFvR10UErrorCodeES3_.exit, label %15

15:                                               ; preds = %12
  store i32 %13, ptr %2, align 4, !tbaa !13
  br label %_ZN6icu_7713umtx_initOnceERNS_9UInitOnceEPFvR10UErrorCodeES3_.exit

_ZN6icu_7713umtx_initOnceERNS_9UInitOnceEPFvR10UErrorCodeES3_.exit: ; preds = %3, %10, %12, %15
  store ptr getelementptr inbounds nuw inrange(-16, 88) (i8, ptr @_ZTVN6icu_7713UnicodeStringE, i64 16), ptr %0, align 8, !tbaa !27
  %16 = getelementptr inbounds nuw i8, ptr %0, i64 8
  store i16 2, ptr %16, align 8, !tbaa !25
  invoke void @_ZN6icu_776number4impl16GeneratorHelpers16generateSkeletonERKNS1_10MacroPropsERNS_13UnicodeStringER10UErrorCode(ptr noundef nonnull align 8 dereferenceable(472) %1, ptr noundef nonnull align 8 dereferenceable(64) %0, ptr noundef nonnull align 4 dereferenceable(4) %2)
          to label %19 unwind label %17

17:                                               ; preds = %_ZN6icu_7713umtx_initOnceERNS_9UInitOnceEPFvR10UErrorCodeES3_.exit
  %18 = landingpad { ptr, i32 }
          cleanup
  tail call void @_ZN6icu_7713UnicodeStringD1Ev(ptr noundef nonnull align 8 dereferenceable(64) %0) #18
  resume { ptr, i32 } %18

19:                                               ; preds = %_ZN6icu_7713umtx_initOnceERNS_9UInitOnceEPFvR10UErrorCodeES3_.exit
  ret void
}